target datalayout = "e-m:e-p270:32:32-p271:32:32-p272:64:64-i64:64-i128:128-f80:128-n8:16:32:64-S128"
target triple = "x86_64-pc-linux-gnu"

%"class.std::vector" = type { %"struct.std::_Vector_base" }
%"struct.std::_Vector_base" = type { %"struct.std::_Vector_base<int, std::allocator<int>>::_Vector_impl" }
%"struct.std::_Vector_base<int, std::allocator<int>>::_Vector_impl" = type { %"struct.std::_Vector_base<int, std::allocator<int>>::_Vector_impl_data" }
%"struct.std::_Vector_base<int, std::allocator<int>>::_Vector_impl_data" = type { ptr, ptr, ptr }
%"class.std::vector.20" = type { %"struct.std::_Vector_base.21" }
%"struct.std::_Vector_base.21" = type { %"struct.std::_Vector_base<char, std::allocator<char>>::_Vector_impl" }
%"struct.std::_Vector_base<char, std::allocator<char>>::_Vector_impl" = type { %"struct.std::_Vector_base<char, std::allocator<char>>::_Vector_impl_data" }
%"struct.std::_Vector_base<char, std::allocator<char>>::_Vector_impl_data" = type { ptr, ptr, ptr }

@_ZN8LightGBM7Network13num_machines_E = thread_local global i32 1, align 4
@_ZN8LightGBM7Network12block_start_E = thread_local global %"class.std::vector" zeroinitializer, align 8
@_ZN8LightGBM7Network10block_len_E = thread_local global %"class.std::vector" zeroinitializer, align 8
@_ZN8LightGBM7Network12buffer_size_E = thread_local global i32 0, align 4
@_ZN8LightGBM7Network7buffer_E = thread_local global %"class.std::vector.20" zeroinitializer, align 8
@.str.13 = private unnamed_addr constant [46 x i8] c"Please initialize the network interface first\00", align 1
@_ZTHN8LightGBM7Network12block_start_E = alias void (), ptr @__tls_init
@_ZTHN8LightGBM7Network10block_len_E = alias void (), ptr @__tls_init
@_ZTHN8LightGBM7Network7buffer_E = alias void (), ptr @__tls_init

; Function Attrs: mustprogress nounwind uwtable
define linkonce_odr noundef ptr @_ZNKSt6vectorIcSaIcEE11_M_data_ptrIcEEPT_S4_(ptr noundef nonnull align 8 dereferenceable(24) %0, ptr noundef %1) #4 comdat align 2 {
  %3 = alloca ptr, align 8
  %4 = alloca ptr, align 8
  store ptr %0, ptr %3, align 8, !tbaa !50
  store ptr %1, ptr %4, align 8, !tbaa !65
  %5 = load ptr, ptr %4, align 8, !tbaa !65
  ret ptr %5
}

; Function Attrs: mustprogress nounwind uwtable
define linkonce_odr noundef ptr @_ZNKSt6vectorIiSaIiEE11_M_data_ptrIiEEPT_S4_(ptr noundef nonnull align 8 dereferenceable(24) %0, ptr noundef %1) #4 comdat align 2 {
  %3 = alloca ptr, align 8
  %4 = alloca ptr, align 8
  store ptr %0, ptr %3, align 8, !tbaa !30
  store ptr %1, ptr %4, align 8, !tbaa !36
  %5 = load ptr, ptr %4, align 8, !tbaa !36
  ret ptr %5
}

; Function Attrs: mustprogress nounwind uwtable
define linkonce_odr noundef ptr @_ZNSt6vectorIcSaIcEE4dataEv(ptr noundef nonnull align 8 dereferenceable(24) %0) #4 comdat align 2 {
  %2 = alloca ptr, align 8
  store ptr %0, ptr %2, align 8, !tbaa !50
  %3 = load ptr, ptr %2, align 8
  %4 = getelementptr inbounds nuw %"struct.std::_Vector_base.21", ptr %3, i32 0, i32 0
  %5 = getelementptr inbounds nuw %"struct.std::_Vector_base<char, std::allocator<char>>::_Vector_impl_data", ptr %4, i32 0, i32 0
  %6 = load ptr, ptr %5, align 8, !tbaa !52
  %7 = call noundef ptr @_ZNKSt6vectorIcSaIcEE11_M_data_ptrIcEEPT_S4_(ptr noundef nonnull align 8 dereferenceable(24) %3, ptr noundef %6) #3
  ret ptr %7
}

; Function Attrs: mustprogress nounwind uwtable
define linkonce_odr noundef ptr @_ZNSt6vectorIiSaIiEE4dataEv(ptr noundef nonnull align 8 dereferenceable(24) %0) #4 comdat align 2 {
  %2 = alloca ptr, align 8
  store ptr %0, ptr %2, align 8, !tbaa !30
  %3 = load ptr, ptr %2, align 8
  %4 = getelementptr inbounds nuw %"struct.std::_Vector_base", ptr %3, i32 0, i32 0
  %5 = getelementptr inbounds nuw %"struct.std::_Vector_base<int, std::allocator<int>>::_Vector_impl_data", ptr %4, i32 0, i32 0
  %6 = load ptr, ptr %5, align 8, !tbaa !32
  %7 = call noundef ptr @_ZNKSt6vectorIiSaIiEE11_M_data_ptrIiEEPT_S4_(ptr noundef nonnull align 8 dereferenceable(24) %3, ptr noundef %6) #3
  ret ptr %7
}

; Function Attrs: uwtable
define weak_odr hidden noundef ptr @_ZTWN8LightGBM7Network7buffer_E() #11 comdat {
  call void @_ZTHN8LightGBM7Network7buffer_E()
  %1 = call align 8 ptr @llvm.threadlocal.address.p0(ptr align 8 @_ZN8LightGBM7Network7buffer_E)
  ret ptr %1
}

; Function Attrs: uwtable
define weak_odr hidden noundef ptr @_ZTWN8LightGBM7Network10block_len_E() #11 comdat {
  call void @_ZTHN8LightGBM7Network10block_len_E()
  %1 = call align 8 ptr @llvm.threadlocal.address.p0(ptr align 8 @_ZN8LightGBM7Network10block_len_E)
  ret ptr %1
}

; Function Attrs: mustprogress nounwind uwtable
define linkonce_odr noundef nonnull align 4 dereferenceable(4) ptr @_ZNSt6vectorIiSaIiEEixEm(ptr noundef nonnull align 8 dereferenceable(24) %0, i64 noundef %1) #4 comdat align 2 {
  %3 = alloca ptr, align 8
  %4 = alloca i64, align 8
  store ptr %0, ptr %3, align 8, !tbaa !30
  store i64 %1, ptr %4, align 8, !tbaa !42
  %5 = load ptr, ptr %3, align 8
  %6 = getelementptr inbounds nuw %"struct.std::_Vector_base", ptr %5, i32 0, i32 0
  %7 = getelementptr inbounds nuw %"struct.std::_Vector_base<int, std::allocator<int>>::_Vector_impl_data", ptr %6, i32 0, i32 0
  %8 = load ptr, ptr %7, align 8, !tbaa !32
  %9 = load i64, ptr %4, align 8, !tbaa !42
  %10 = getelementptr inbounds nuw i32, ptr %8, i64 %9
  ret ptr %10
}

; Function Attrs: uwtable
define weak_odr hidden noundef ptr @_ZTWN8LightGBM7Network12block_start_E() #11 comdat {
  call void @_ZTHN8LightGBM7Network12block_start_E()
  %1 = call align 8 ptr @llvm.threadlocal.address.p0(ptr align 8 @_ZN8LightGBM7Network12block_start_E)
  ret ptr %1
}

; Function Attrs: mustprogress uwtable
define void @_ZN8LightGBM7Network20AllreduceByAllGatherEPciiS1_RKPFvPKcS1_iiE(ptr noundef %0, i32 noundef %1, i32 noundef %2, ptr noundef %3, ptr noundef nonnull align 8 dereferenceable(8) %4) #10 align 2 {
  %6 = alloca ptr, align 8
  %7 = alloca i32, align 4
  %8 = alloca i32, align 4
  %9 = alloca ptr, align 8
  %10 = alloca ptr, align 8
  %11 = alloca i32, align 4
  %12 = alloca i32, align 4
  %13 = alloca i32, align 4
  store ptr %0, ptr %6, align 8, !tbaa !65
  store i32 %1, ptr %7, align 4, !tbaa !104
  store i32 %2, ptr %8, align 4, !tbaa !104
  store ptr %3, ptr %9, align 8, !tbaa !65
  store ptr %4, ptr %10, align 8, !tbaa !316
  %14 = call align 4 ptr @llvm.threadlocal.address.p0(ptr align 4 @_ZN8LightGBM7Network13num_machines_E)
  %15 = load i32, ptr %14, align 4, !tbaa !104
  %16 = icmp sle i32 %15, 1
  br i1 %16, label %17, label %18

17:                                               ; preds = %5
  call void (ptr, ...) @_ZN8LightGBM3Log5FatalEPKcz(ptr noundef @.str.13)
  br label %18

18:                                               ; preds = %17, %5
  call void @llvm.lifetime.start.p0(i64 4, ptr %11) #3
  %19 = load i32, ptr %7, align 4, !tbaa !104
  %20 = call align 4 ptr @llvm.threadlocal.address.p0(ptr align 4 @_ZN8LightGBM7Network13num_machines_E)
  %21 = load i32, ptr %20, align 4, !tbaa !104
  %22 = mul nsw i32 %19, %21
  store i32 %22, ptr %11, align 4, !tbaa !104
  %23 = call ptr @_ZTWN8LightGBM7Network12block_start_E()
  %24 = call noundef nonnull align 4 dereferenceable(4) ptr @_ZNSt6vectorIiSaIiEEixEm(ptr noundef nonnull align 8 dereferenceable(24) %23, i64 noundef 0) #3
  store i32 0, ptr %24, align 4, !tbaa !104
  %25 = load i32, ptr %7, align 4, !tbaa !104
  %26 = call ptr @_ZTWN8LightGBM7Network10block_len_E()
  %27 = call noundef nonnull align 4 dereferenceable(4) ptr @_ZNSt6vectorIiSaIiEEixEm(ptr noundef nonnull align 8 dereferenceable(24) %26, i64 noundef 0) #3
  store i32 %25, ptr %27, align 4, !tbaa !104
  call void @llvm.lifetime.start.p0(i64 4, ptr %12) #3
  store i32 1, ptr %12, align 4, !tbaa !104
  br label %28

28:                                               ; preds = %57, %18
  %29 = load i32, ptr %12, align 4, !tbaa !104
  %30 = call align 4 ptr @llvm.threadlocal.address.p0(ptr align 4 @_ZN8LightGBM7Network13num_machines_E)
  %31 = load i32, ptr %30, align 4, !tbaa !104
  %32 = icmp slt i32 %29, %31
  br i1 %32, label %34, label %33

33:                                               ; preds = %28
  call void @llvm.lifetime.end.p0(i64 4, ptr %12) #3
  br label %60

34:                                               ; preds = %28
  %35 = call ptr @_ZTWN8LightGBM7Network12block_start_E()
  %36 = load i32, ptr %12, align 4, !tbaa !104
  %37 = sub nsw i32 %36, 1
  %38 = sext i32 %37 to i64
  %39 = call noundef nonnull align 4 dereferenceable(4) ptr @_ZNSt6vectorIiSaIiEEixEm(ptr noundef nonnull align 8 dereferenceable(24) %35, i64 noundef %38) #3
  %40 = load i32, ptr %39, align 4, !tbaa !104
  %41 = call ptr @_ZTWN8LightGBM7Network10block_len_E()
  %42 = load i32, ptr %12, align 4, !tbaa !104
  %43 = sub nsw i32 %42, 1
  %44 = sext i32 %43 to i64
  %45 = call noundef nonnull align 4 dereferenceable(4) ptr @_ZNSt6vectorIiSaIiEEixEm(ptr noundef nonnull align 8 dereferenceable(24) %41, i64 noundef %44) #3
  %46 = load i32, ptr %45, align 4, !tbaa !104
  %47 = add nsw i32 %40, %46
  %48 = call ptr @_ZTWN8LightGBM7Network12block_start_E()
  %49 = load i32, ptr %12, align 4, !tbaa !104
  %50 = sext i32 %49 to i64
  %51 = call noundef nonnull align 4 dereferenceable(4) ptr @_ZNSt6vectorIiSaIiEEixEm(ptr noundef nonnull align 8 dereferenceable(24) %48, i64 noundef %50) #3
  store i32 %47, ptr %51, align 4, !tbaa !104
  %52 = load i32, ptr %7, align 4, !tbaa !104
  %53 = call ptr @_ZTWN8LightGBM7Network10block_len_E()
  %54 = load i32, ptr %12, align 4, !tbaa !104
  %55 = sext i32 %54 to i64
  %56 = call noundef nonnull align 4 dereferenceable(4) ptr @_ZNSt6vectorIiSaIiEEixEm(ptr noundef nonnull align 8 dereferenceable(24) %53, i64 noundef %55) #3
  store i32 %52, ptr %56, align 4, !tbaa !104
  br label %57

57:                                               ; preds = %34
  %58 = load i32, ptr %12, align 4, !tbaa !104
  %59 = add nsw i32 %58, 1
  store i32 %59, ptr %12, align 4, !tbaa !104
  br label %28, !llvm.loop !318

60:                                               ; preds = %33
  %61 = load i32, ptr %7, align 4, !tbaa !104
  %62 = call align 4 ptr @llvm.threadlocal.address.p0(ptr align 4 @_ZN8LightGBM7Network13num_machines_E)
  %63 = load i32, ptr %62, align 4, !tbaa !104
  %64 = mul nsw i32 %61, %63
  %65 = call align 4 ptr @llvm.threadlocal.address.p0(ptr align 4 @_ZN8LightGBM7Network12buffer_size_E)
  %66 = load i32, ptr %65, align 4, !tbaa !104
  %67 = icmp sgt i32 %64, %66
  br i1 %67, label %68, label %78

68:                                               ; preds = %60
  %69 = load i32, ptr %7, align 4, !tbaa !104
  %70 = call align 4 ptr @llvm.threadlocal.address.p0(ptr align 4 @_ZN8LightGBM7Network13num_machines_E)
  %71 = load i32, ptr %70, align 4, !tbaa !104
  %72 = mul nsw i32 %69, %71
  %73 = call align 4 ptr @llvm.threadlocal.address.p0(ptr align 4 @_ZN8LightGBM7Network12buffer_size_E)
  store i32 %72, ptr %73, align 4, !tbaa !104
  %74 = call ptr @_ZTWN8LightGBM7Network7buffer_E()
  %75 = call align 4 ptr @llvm.threadlocal.address.p0(ptr align 4 @_ZN8LightGBM7Network12buffer_size_E)
  %76 = load i32, ptr %75, align 4, !tbaa !104
  %77 = sext i32 %76 to i64
  call void @_ZNSt6vectorIcSaIcEE6resizeEm(ptr noundef nonnull align 8 dereferenceable(24) %74, i64 noundef %77)
  br label %78

78:                                               ; preds = %68, %60
  %79 = load ptr, ptr %6, align 8, !tbaa !65
  %80 = call ptr @_ZTWN8LightGBM7Network12block_start_E()
  %81 = call noundef ptr @_ZNSt6vectorIiSaIiEE4dataEv(ptr noundef nonnull align 8 dereferenceable(24) %80) #3
  %82 = call ptr @_ZTWN8LightGBM7Network10block_len_E()
  %83 = call noundef ptr @_ZNSt6vectorIiSaIiEE4dataEv(ptr noundef nonnull align 8 dereferenceable(24) %82) #3
  %84 = call ptr @_ZTWN8LightGBM7Network7buffer_E()
  %85 = call noundef ptr @_ZNSt6vectorIcSaIcEE4dataEv(ptr noundef nonnull align 8 dereferenceable(24) %84) #3
  %86 = load i32, ptr %11, align 4, !tbaa !104
  call void @_ZN8LightGBM7Network9AllgatherEPcPKiS3_S1_i(ptr noundef %79, ptr noundef %81, ptr noundef %83, ptr noundef %85, i32 noundef %86)
  call void @llvm.lifetime.start.p0(i64 4, ptr %13) #3
  store i32 1, ptr %13, align 4, !tbaa !104
  br label %87

87:                                               ; preds = %114, %78
  %88 = load i32, ptr %13, align 4, !tbaa !104
  %89 = call align 4 ptr @llvm.threadlocal.address.p0(ptr align 4 @_ZN8LightGBM7Network13num_machines_E)
  %90 = load i32, ptr %89, align 4, !tbaa !104
  %91 = icmp slt i32 %88, %90
  br i1 %91, label %93, label %92

92:                                               ; preds = %87
  call void @llvm.lifetime.end.p0(i64 4, ptr %13) #3
  br label %117

93:                                               ; preds = %87
  %94 = load ptr, ptr %10, align 8, !tbaa !316
  %95 = load ptr, ptr %94, align 8, !tbaa !177
  %96 = call ptr @_ZTWN8LightGBM7Network7buffer_E()
  %97 = call noundef ptr @_ZNSt6vectorIcSaIcEE4dataEv(ptr noundef nonnull align 8 dereferenceable(24) %96) #3
  %98 = call ptr @_ZTWN8LightGBM7Network12block_start_E()
  %99 = load i32, ptr %13, align 4, !tbaa !104
  %100 = sext i32 %99 to i64
  %101 = call noundef nonnull align 4 dereferenceable(4) ptr @_ZNSt6vectorIiSaIiEEixEm(ptr noundef nonnull align 8 dereferenceable(24) %98, i64 noundef %100) #3
  %102 = load i32, ptr %101, align 4, !tbaa !104
  %103 = sext i32 %102 to i64
  %104 = getelementptr inbounds i8, ptr %97, i64 %103
  %105 = call ptr @_ZTWN8LightGBM7Network7buffer_E()
  %106 = call noundef ptr @_ZNSt6vectorIcSaIcEE4dataEv(ptr noundef nonnull align 8 dereferenceable(24) %105) #3
  %107 = call ptr @_ZTWN8LightGBM7Network12block_start_E()
  %108 = call noundef nonnull align 4 dereferenceable(4) ptr @_ZNSt6vectorIiSaIiEEixEm(ptr noundef nonnull align 8 dereferenceable(24) %107, i64 noundef 0) #3
  %109 = load i32, ptr %108, align 4, !tbaa !104
  %110 = sext i32 %109 to i64
  %111 = getelementptr inbounds i8, ptr %106, i64 %110
  %112 = load i32, ptr %8, align 4, !tbaa !104
  %113 = load i32, ptr %7, align 4, !tbaa !104
  call void %95(ptr noundef %104, ptr noundef %111, i32 noundef %112, i32 noundef %113)
  br label %114

114:                                              ; preds = %93
  %115 = load i32, ptr %13, align 4, !tbaa !104
  %116 = add nsw i32 %115, 1
  store i32 %116, ptr %13, align 4, !tbaa !104
  br label %87, !llvm.loop !319

117:                                              ; preds = %92
  %118 = load ptr, ptr %9, align 8, !tbaa !65
  %119 = call ptr @_ZTWN8LightGBM7Network7buffer_E()
  %120 = call noundef ptr @_ZNSt6vectorIcSaIcEE4dataEv(ptr noundef nonnull align 8 dereferenceable(24) %119) #3
  %121 = load i32, ptr %7, align 4, !tbaa !104
  %122 = sext i32 %121 to i64
  call void @llvm.memcpy.p0.p0.i64(ptr align 1 %118, ptr align 1 %120, i64 %122, i1 false)
  call void @llvm.lifetime.end.p0(i64 4, ptr %11) #3
  ret void
}