; Function Attrs: uwtable
define void @_ZN8LightGBM7Network20AllreduceByAllGatherEPciiS1_RKPFvPKcS1_iiE(ptr noundef %0, i32 noundef %1, i32 noundef %2, ptr noundef writeonly captures(none) %3, ptr noundef nonnull readonly align 8 captures(none) dereferenceable(8) %4) local_unnamed_addr #11 align 2 {
  %6 = tail call align 4 ptr @llvm.threadlocal.address.p0(ptr align 4 @_ZN8LightGBM7Network13num_machines_E)
  %7 = load i32, ptr %6, align 4, !tbaa !69
  %8 = icmp slt i32 %7, 2
  br i1 %8, label %9, label %10

9:                                                ; preds = %5
  tail call void (ptr, ...) @_ZN8LightGBM3Log5FatalEPKcz(ptr noundef nonnull @.str.13)
  %.pre = load i32, ptr %6, align 4, !tbaa !69
  br label %10

10:                                               ; preds = %9, %5
  %11 = phi i32 [ %.pre, %9 ], [ %7, %5 ]
  %12 = mul nsw i32 %11, %1
  tail call void @_ZTHN8LightGBM7Network12block_start_E()
  %13 = tail call noundef align 8 ptr @llvm.threadlocal.address.p0(ptr align 8 @_ZN8LightGBM7Network12block_start_E)
  %14 = load ptr, ptr %13, align 8, !tbaa !9
  store i32 0, ptr %14, align 4, !tbaa !69
  tail call void @_ZTHN8LightGBM7Network10block_len_E()
  %15 = tail call noundef align 8 ptr @llvm.threadlocal.address.p0(ptr align 8 @_ZN8LightGBM7Network10block_len_E)
  %16 = load ptr, ptr %15, align 8, !tbaa !9
  store i32 %1, ptr %16, align 4, !tbaa !69
  %17 = load i32, ptr %6, align 4, !tbaa !69
  %18 = icmp sgt i32 %17, 1
  br i1 %18, label %.lr.ph, label %._crit_edge

._crit_edge:                                      ; preds = %.lr.ph, %10
  %.lcssa = phi i32 [ %17, %10 ], [ %35, %.lr.ph ]
  %19 = mul nsw i32 %.lcssa, %1
  %20 = tail call align 4 ptr @llvm.threadlocal.address.p0(ptr align 4 @_ZN8LightGBM7Network12buffer_size_E)
  %21 = load i32, ptr %20, align 4, !tbaa !69
  %22 = icmp sgt i32 %19, %21
  br i1 %22, label %38, label %._crit_edge._crit_edge

._crit_edge._crit_edge:                           ; preds = %._crit_edge
  %.pre33 = tail call noundef align 8 ptr @llvm.threadlocal.address.p0(ptr align 8 @_ZN8LightGBM7Network7buffer_E)
  br label %42

.lr.ph:                                           ; preds = %10, %.lr.ph
  %indvars.iv = phi i64 [ %indvars.iv.next, %.lr.ph ], [ 1, %10 ]
  tail call void @_ZTHN8LightGBM7Network12block_start_E()
  %23 = add nsw i64 %indvars.iv, -1
  %24 = load ptr, ptr %13, align 8, !tbaa !9
  %25 = getelementptr inbounds nuw i32, ptr %24, i64 %23
  %26 = load i32, ptr %25, align 4, !tbaa !69
  tail call void @_ZTHN8LightGBM7Network10block_len_E()
  %27 = load ptr, ptr %15, align 8, !tbaa !9
  %28 = getelementptr inbounds nuw i32, ptr %27, i64 %23
  %29 = load i32, ptr %28, align 4, !tbaa !69
  %30 = add nsw i32 %29, %26
  tail call void @_ZTHN8LightGBM7Network12block_start_E()
  %31 = load ptr, ptr %13, align 8, !tbaa !9
  %32 = getelementptr inbounds nuw i32, ptr %31, i64 %indvars.iv
  store i32 %30, ptr %32, align 4, !tbaa !69
  tail call void @_ZTHN8LightGBM7Network10block_len_E()
  %33 = load ptr, ptr %15, align 8, !tbaa !9
  %34 = getelementptr inbounds nuw i32, ptr %33, i64 %indvars.iv
  store i32 %1, ptr %34, align 4, !tbaa !69
  %indvars.iv.next = add nuw nsw i64 %indvars.iv, 1
  %35 = load i32, ptr %6, align 4, !tbaa !69
  %36 = sext i32 %35 to i64
  %37 = icmp slt i64 %indvars.iv.next, %36
  br i1 %37, label %.lr.ph, label %._crit_edge, !llvm.loop !127

38:                                               ; preds = %._crit_edge
  store i32 %19, ptr %20, align 4, !tbaa !69
  tail call void @_ZTHN8LightGBM7Network7buffer_E()
  %39 = tail call noundef align 8 ptr @llvm.threadlocal.address.p0(ptr align 8 @_ZN8LightGBM7Network7buffer_E)
  %40 = load i32, ptr %20, align 4, !tbaa !69
  %41 = sext i32 %40 to i64
  tail call void @_ZNSt6vectorIcSaIcEE6resizeEm(ptr noundef nonnull align 8 dereferenceable(24) %39, i64 noundef %41)
  br label %42

42:                                               ; preds = %._crit_edge._crit_edge, %38
  %.pre-phi = phi ptr [ %.pre33, %._crit_edge._crit_edge ], [ %39, %38 ]
  tail call void @_ZTHN8LightGBM7Network12block_start_E()
  %43 = load ptr, ptr %13, align 8, !tbaa !9
  tail call void @_ZTHN8LightGBM7Network10block_len_E()
  %44 = load ptr, ptr %15, align 8, !tbaa !9
  tail call void @_ZTHN8LightGBM7Network7buffer_E()
  %45 = load ptr, ptr %.pre-phi, align 8, !tbaa !12
  tail call void @_ZN8LightGBM7Network9AllgatherEPcPKiS3_S1_i(ptr noundef %0, ptr noundef %43, ptr noundef %44, ptr noundef %45, i32 noundef %12)
  %46 = load i32, ptr %6, align 4, !tbaa !69
  %47 = icmp sgt i32 %46, 1
  br i1 %47, label %.lr.ph26, label %._crit_edge27

._crit_edge27:                                    ; preds = %.lr.ph26, %42
  tail call void @_ZTHN8LightGBM7Network7buffer_E()
  %48 = load ptr, ptr %.pre-phi, align 8, !tbaa !12
  %49 = sext i32 %1 to i64
  tail call void @llvm.memcpy.p0.p0.i64(ptr align 1 %3, ptr align 1 %48, i64 %49, i1 false)
  ret void

.lr.ph26:                                         ; preds = %42, %.lr.ph26
  %indvars.iv30 = phi i64 [ %indvars.iv.next31, %.lr.ph26 ], [ 1, %42 ]
  %50 = load ptr, ptr %4, align 8, !tbaa !119
  tail call void @_ZTHN8LightGBM7Network7buffer_E()
  %51 = load ptr, ptr %.pre-phi, align 8, !tbaa !12
  tail call void @_ZTHN8LightGBM7Network12block_start_E()
  %52 = load ptr, ptr %13, align 8, !tbaa !9
  %53 = getelementptr inbounds nuw i32, ptr %52, i64 %indvars.iv30
  %54 = load i32, ptr %53, align 4, !tbaa !69
  %55 = sext i32 %54 to i64
  %56 = getelementptr inbounds i8, ptr %51, i64 %55
  tail call void @_ZTHN8LightGBM7Network7buffer_E()
  %57 = load ptr, ptr %.pre-phi, align 8, !tbaa !12
  tail call void @_ZTHN8LightGBM7Network12block_start_E()
  %58 = load ptr, ptr %13, align 8, !tbaa !9
  %59 = load i32, ptr %58, align 4, !tbaa !69
  %60 = sext i32 %59 to i64
  %61 = getelementptr inbounds i8, ptr %57, i64 %60
  tail call void %50(ptr noundef %56, ptr noundef %61, i32 noundef %2, i32 noundef %1)
  %indvars.iv.next31 = add nuw nsw i64 %indvars.iv30, 1
  %62 = load i32, ptr %6, align 4, !tbaa !69
  %63 = sext i32 %62 to i64
  %64 = icmp slt i64 %indvars.iv.next31, %63
  br i1 %64, label %.lr.ph26, label %._crit_edge27, !llvm.loop !128
}